target datalayout = "e-m:e-p270:32:32-p271:32:32-p272:64:64-i64:64-i128:128-f80:128-n8:16:32:64-S128"
target triple = "x86_64-pc-linux-gnu"

%union.EX_STYPE = type { ptr }
%struct.Expr_s = type { ptr, ptr, [10 x ptr], ptr, ptr, ptr, ptr, ptr, ptr, %struct.agxbuf, %union.EX_STYPE, %struct.Exid_s, [512 x i8], ptr, i32, i32, i32, i64, i64, i32 }
%struct.agxbuf = type { %union.anon.10 }
%union.anon.10 = type { %struct.anon.11 }
%struct.anon.11 = type { ptr, i64, i64, [7 x i8], i8 }
%struct.Exid_s = type { %struct.dtlink_s_, i64, i64, i64, i64, ptr, ptr, [32 x i8] }
%struct.dtlink_s_ = type { ptr, %union.anon.12 }
%union.anon.12 = type { ptr }

; Function Attrs: nounwind uwtable
define internal ptr @str_mpy(ptr noundef %0, ptr noundef %1, ptr noundef %2) #0 {
  %4 = alloca ptr, align 8
  %5 = alloca ptr, align 8
  %6 = alloca ptr, align 8
  %7 = alloca ptr, align 8
  %8 = alloca i64, align 8
  %9 = alloca i64, align 8
  %10 = alloca ptr, align 8
  %11 = alloca i32, align 4
  %12 = alloca i64, align 8
  store ptr %0, ptr %5, align 8, !tbaa !3
  store ptr %1, ptr %6, align 8, !tbaa !42
  store ptr %2, ptr %7, align 8, !tbaa !42
  call void @llvm.lifetime.start.p0(i64 8, ptr %8) #15
  %13 = load ptr, ptr %6, align 8, !tbaa !42
  %14 = call i64 @strlen(ptr noundef %13) #18
  store i64 %14, ptr %8, align 8, !tbaa !45
  call void @llvm.lifetime.start.p0(i64 8, ptr %9) #15
  %15 = load ptr, ptr %7, align 8, !tbaa !42
  %16 = call i64 @strlen(ptr noundef %15) #18
  store i64 %16, ptr %9, align 8, !tbaa !45
  %17 = load i64, ptr %9, align 8, !tbaa !45
  %18 = load i64, ptr %8, align 8, !tbaa !45
  %19 = icmp ult i64 %17, %18
  br i1 %19, label %20, label %22

20:                                               ; preds = %3
  %21 = load i64, ptr %9, align 8, !tbaa !45
  store i64 %21, ptr %8, align 8, !tbaa !45
  br label %22

22:                                               ; preds = %20, %3
  call void @llvm.lifetime.end.p0(i64 8, ptr %9) #15
  %23 = load i64, ptr %8, align 8, !tbaa !45
  %24 = add i64 %23, 1
  store i64 %24, ptr %8, align 8, !tbaa !45
  call void @llvm.lifetime.start.p0(i64 8, ptr %10) #15
  %25 = load ptr, ptr %5, align 8, !tbaa !3
  %26 = getelementptr inbounds nuw %struct.Expr_s, ptr %25, i32 0, i32 4
  %27 = load ptr, ptr %26, align 8, !tbaa !74
  %28 = load i64, ptr %8, align 8, !tbaa !45
  %29 = call ptr @vmalloc(ptr noundef %27, i64 noundef %28)
  store ptr %29, ptr %10, align 8, !tbaa !42
  %30 = load ptr, ptr %10, align 8, !tbaa !42
  %31 = icmp eq ptr %30, null
  br i1 %31, label %32, label %34

32:                                               ; preds = %22
  %33 = call ptr @exnospace()
  store ptr %33, ptr %4, align 8
  store i32 1, ptr %11, align 4
  br label %84

34:                                               ; preds = %22
  call void @llvm.lifetime.start.p0(i64 8, ptr %12) #15
  store i64 0, ptr %12, align 8, !tbaa !45
  br label %35

35:                                               ; preds = %76, %34
  %36 = load ptr, ptr %6, align 8, !tbaa !42
  %37 = load i64, ptr %12, align 8, !tbaa !45
  %38 = getelementptr inbounds nuw i8, ptr %36, i64 %37
  %39 = load i8, ptr %38, align 1, !tbaa !11
  %40 = sext i8 %39 to i32
  %41 = icmp ne i32 %40, 0
  br i1 %41, label %42, label %49

42:                                               ; preds = %35
  %43 = load ptr, ptr %7, align 8, !tbaa !42
  %44 = load i64, ptr %12, align 8, !tbaa !45
  %45 = getelementptr inbounds nuw i8, ptr %43, i64 %44
  %46 = load i8, ptr %45, align 1, !tbaa !11
  %47 = sext i8 %46 to i32
  %48 = icmp ne i32 %47, 0
  br label %49

49:                                               ; preds = %42, %35
  %50 = phi i1 [ false, %35 ], [ %48, %42 ]
  br i1 %50, label %51, label %79

51:                                               ; preds = %49
  %52 = load ptr, ptr %6, align 8, !tbaa !42
  %53 = load i64, ptr %12, align 8, !tbaa !45
  %54 = getelementptr inbounds nuw i8, ptr %52, i64 %53
  %55 = load i8, ptr %54, align 1, !tbaa !11
  %56 = sext i8 %55 to i32
  %57 = load ptr, ptr %7, align 8, !tbaa !42
  %58 = load i64, ptr %12, align 8, !tbaa !45
  %59 = getelementptr inbounds nuw i8, ptr %57, i64 %58
  %60 = load i8, ptr %59, align 1, !tbaa !11
  %61 = sext i8 %60 to i32
  %62 = icmp eq i32 %56, %61
  br i1 %62, label %63, label %69

63:                                               ; preds = %51
  %64 = load ptr, ptr %6, align 8, !tbaa !42
  %65 = load i64, ptr %12, align 8, !tbaa !45
  %66 = getelementptr inbounds nuw i8, ptr %64, i64 %65
  %67 = load i8, ptr %66, align 1, !tbaa !11
  %68 = sext i8 %67 to i32
  br label %70

69:                                               ; preds = %51
  br label %70

70:                                               ; preds = %69, %63
  %71 = phi i32 [ %68, %63 ], [ 32, %69 ]
  %72 = trunc i32 %71 to i8
  %73 = load ptr, ptr %10, align 8, !tbaa !42
  %74 = load i64, ptr %12, align 8, !tbaa !45
  %75 = getelementptr inbounds nuw i8, ptr %73, i64 %74
  store i8 %72, ptr %75, align 1, !tbaa !11
  br label %76

76:                                               ; preds = %70
  %77 = load i64, ptr %12, align 8, !tbaa !45
  %78 = add i64 %77, 1
  store i64 %78, ptr %12, align 8, !tbaa !45
  br label %35, !llvm.loop !118

79:                                               ; preds = %49
  %80 = load ptr, ptr %10, align 8, !tbaa !42
  %81 = load i64, ptr %12, align 8, !tbaa !45
  %82 = getelementptr inbounds nuw i8, ptr %80, i64 %81
  store i8 0, ptr %82, align 1, !tbaa !11
  %83 = load ptr, ptr %10, align 8, !tbaa !42
  store ptr %83, ptr %4, align 8
  store i32 1, ptr %11, align 4
  call void @llvm.lifetime.end.p0(i64 8, ptr %12) #15
  br label %84

84:                                               ; preds = %79, %32
  call void @llvm.lifetime.end.p0(i64 8, ptr %10) #15
  call void @llvm.lifetime.end.p0(i64 8, ptr %8) #15
  %85 = load ptr, ptr %4, align 8
  ret ptr %85
}