; Function Attrs: nounwind uwtable
define internal fastcc ptr @str_mpy(ptr %.104.val, ptr noundef readonly captures(none) %0, ptr noundef readonly captures(none) %1) unnamed_addr #0 {
  %3 = tail call i64 @strlen(ptr noundef nonnull dereferenceable(1) %0) #30
  %4 = tail call i64 @strlen(ptr noundef nonnull dereferenceable(1) %1) #30
  %spec.select = tail call i64 @llvm.umin.i64(i64 %4, i64 %3)
  %5 = add i64 %spec.select, 1
  %6 = tail call ptr @vmalloc(ptr noundef %.104.val, i64 noundef %5) #25
  %7 = icmp eq ptr %6, null
  br i1 %7, label %9, label %.preheader

.preheader:                                       ; preds = %2
  %8 = load i8, ptr %0, align 1, !tbaa !3
  %.not1 = icmp eq i8 %8, 0
  br i1 %.not1, label %.critedge, label %.lr.ph

9:                                                ; preds = %2
  %10 = tail call ptr @exnospace() #25
  br label %21

.lr.ph:                                           ; preds = %.preheader, %14
  %11 = phi i8 [ %19, %14 ], [ %8, %.preheader ]
  %.02 = phi i64 [ %17, %14 ], [ 0, %.preheader ]
  %12 = getelementptr inbounds nuw i8, ptr %1, i64 %.02
  %13 = load i8, ptr %12, align 1, !tbaa !3
  %.not32 = icmp eq i8 %13, 0
  br i1 %.not32, label %.critedge, label %14

14:                                               ; preds = %.lr.ph
  %15 = icmp eq i8 %11, %13
  %spec.select33 = select i1 %15, i8 %11, i8 32
  %16 = getelementptr inbounds nuw i8, ptr %6, i64 %.02
  store i8 %spec.select33, ptr %16, align 1, !tbaa !3
  %17 = add i64 %.02, 1
  %18 = getelementptr inbounds nuw i8, ptr %0, i64 %17
  %19 = load i8, ptr %18, align 1, !tbaa !3
  %.not = icmp eq i8 %19, 0
  br i1 %.not, label %.critedge, label %.lr.ph, !llvm.loop !109

.critedge:                                        ; preds = %.lr.ph, %14, %.preheader
  %.0.lcssa = phi i64 [ 0, %.preheader ], [ %17, %14 ], [ %.02, %.lr.ph ]
  %20 = getelementptr inbounds nuw i8, ptr %6, i64 %.0.lcssa
  store i8 0, ptr %20, align 1, !tbaa !3
  br label %21

21:                                               ; preds = %.critedge, %9
  %.025 = phi ptr [ %10, %9 ], [ %6, %.critedge ]
  ret ptr %.025
}